; Function Attrs: nounwind uwtable
define ptr @l___private_Lean_Server_Requests_0__Lean_Server_overrideStatefulLspRequestHandler___at_Lean_Server_FileWorker_initFn____x40_Lean_Server_FileWorker_SemanticHighlighting___hyg_2982____spec__6___lambda__1(ptr noundef %0) #0 {
  %2 = tail call ptr @l_Lean_Server_parseRequestParams___at_Lean_Server_FileWorker_initFn____x40_Lean_Server_FileWorker_SemanticHighlighting___hyg_2982____spec__7(ptr noundef %0)
  %3 = ptrtoint ptr %2 to i64
  %4 = and i64 %3, 1
  %.not.i25 = icmp eq i64 %4, 0
  br i1 %.not.i25, label %8, label %5

5:                                                ; preds = %1
  %6 = lshr i64 %3, 1
  %7 = trunc i64 %6 to i32
  br label %lean_obj_tag.exit

8:                                                ; preds = %1
  %9 = getelementptr i8, ptr %2, i64 4
  %.val.i = load i32, ptr %9, align 4
  %10 = lshr i32 %.val.i, 24
  br label %lean_obj_tag.exit

lean_obj_tag.exit:                                ; preds = %5, %8
  %.0.i = phi i32 [ %7, %5 ], [ %10, %8 ]
  %11 = icmp eq i32 %.0.i, 0
  %.val24 = load i32, ptr %2, align 4, !tbaa !8
  %12 = icmp eq i32 %.val24, 1
  br i1 %11, label %13, label %35

13:                                               ; preds = %lean_obj_tag.exit
  br i1 %12, label %59, label %14

14:                                               ; preds = %13
  %15 = getelementptr inbounds nuw i8, ptr %2, i64 8
  %16 = load ptr, ptr %15, align 8, !tbaa !11
  %17 = ptrtoint ptr %16 to i64
  %18 = and i64 %17, 1
  %.not33 = icmp eq i64 %18, 0
  br i1 %.not33, label %19, label %lean_inc.exit21

19:                                               ; preds = %14
  %.val.i26 = load i32, ptr %16, align 4, !tbaa !8
  %20 = icmp sgt i32 %.val.i26, 0
  br i1 %20, label %21, label %23, !prof !14

21:                                               ; preds = %19
  %22 = add nuw i32 %.val.i26, 1
  store i32 %22, ptr %16, align 4, !tbaa !8
  br label %lean_inc.exit21

23:                                               ; preds = %19
  %.not.i27 = icmp eq i32 %.val.i26, 0
  br i1 %.not.i27, label %lean_inc.exit21, label %24

24:                                               ; preds = %23
  tail call void @lean_inc_ref_cold(ptr noundef nonnull %16) #7
  br label %lean_inc.exit21

lean_inc.exit21:                                  ; preds = %24, %23, %21, %14
  br i1 %.not.i25, label %25, label %lean_dec.exit20

25:                                               ; preds = %lean_inc.exit21
  %26 = load i32, ptr %2, align 4, !tbaa !8
  %27 = icmp sgt i32 %26, 1
  br i1 %27, label %28, label %30, !prof !14

28:                                               ; preds = %25
  %29 = add nsw i32 %26, -1
  store i32 %29, ptr %2, align 4, !tbaa !8
  br label %lean_dec.exit20

30:                                               ; preds = %25
  %.not.i = icmp eq i32 %26, 0
  br i1 %.not.i, label %lean_dec.exit20, label %31

31:                                               ; preds = %30
  tail call void @lean_dec_ref_cold(ptr noundef nonnull %2) #7
  br label %lean_dec.exit20

lean_dec.exit20:                                  ; preds = %31, %30, %28, %lean_inc.exit21
  tail call void @lean_inc_heartbeat() #7
  %32 = tail call noalias ptr @mi_malloc_small(i64 noundef 16) #7
  %33 = icmp eq ptr %32, null
  br i1 %33, label %34, label %.sink.split

34:                                               ; preds = %lean_dec.exit20
  tail call void @lean_internal_panic_out_of_memory() #8
  unreachable

35:                                               ; preds = %lean_obj_tag.exit
  br i1 %12, label %59, label %36

36:                                               ; preds = %35
  %37 = getelementptr inbounds nuw i8, ptr %2, i64 8
  %38 = load ptr, ptr %37, align 8, !tbaa !11
  %39 = ptrtoint ptr %38 to i64
  %40 = and i64 %39, 1
  %.not = icmp eq i64 %40, 0
  br i1 %.not, label %41, label %lean_inc.exit

41:                                               ; preds = %36
  %.val.i28 = load i32, ptr %38, align 4, !tbaa !8
  %42 = icmp sgt i32 %.val.i28, 0
  br i1 %42, label %43, label %45, !prof !14

43:                                               ; preds = %41
  %44 = add nuw i32 %.val.i28, 1
  store i32 %44, ptr %38, align 4, !tbaa !8
  br label %lean_inc.exit

45:                                               ; preds = %41
  %.not.i29 = icmp eq i32 %.val.i28, 0
  br i1 %.not.i29, label %lean_inc.exit, label %46

46:                                               ; preds = %45
  tail call void @lean_inc_ref_cold(ptr noundef nonnull %38) #7
  br label %lean_inc.exit

lean_inc.exit:                                    ; preds = %46, %45, %43, %36
  br i1 %.not.i25, label %47, label %lean_dec.exit

47:                                               ; preds = %lean_inc.exit
  %48 = load i32, ptr %2, align 4, !tbaa !8
  %49 = icmp sgt i32 %48, 1
  br i1 %49, label %50, label %52, !prof !14

50:                                               ; preds = %47
  %51 = add nsw i32 %48, -1
  store i32 %51, ptr %2, align 4, !tbaa !8
  br label %lean_dec.exit

52:                                               ; preds = %47
  %.not.i22 = icmp eq i32 %48, 0
  br i1 %.not.i22, label %lean_dec.exit, label %53

53:                                               ; preds = %52
  tail call void @lean_dec_ref_cold(ptr noundef nonnull %2) #7
  br label %lean_dec.exit

lean_dec.exit:                                    ; preds = %53, %52, %50, %lean_inc.exit
  tail call void @lean_inc_heartbeat() #7
  %54 = tail call noalias ptr @mi_malloc_small(i64 noundef 16) #7
  %55 = icmp eq ptr %54, null
  br i1 %55, label %56, label %.sink.split

56:                                               ; preds = %lean_dec.exit
  tail call void @lean_internal_panic_out_of_memory() #8
  unreachable

.sink.split:                                      ; preds = %lean_dec.exit, %lean_dec.exit20
  %.sink40 = phi ptr [ %32, %lean_dec.exit20 ], [ %54, %lean_dec.exit ]
  %.sink37 = phi i32 [ 65552, %lean_dec.exit20 ], [ 16842768, %lean_dec.exit ]
  %.sink = phi ptr [ %16, %lean_dec.exit20 ], [ %38, %lean_dec.exit ]
  %57 = getelementptr inbounds nuw i8, ptr %.sink40, i64 4
  store i32 1, ptr %.sink40, align 4, !tbaa !8
  store i32 %.sink37, ptr %57, align 4
  %58 = getelementptr inbounds nuw i8, ptr %.sink40, i64 8
  store ptr %.sink, ptr %58, align 8, !tbaa !11
  br label %59

59:                                               ; preds = %.sink.split, %35, %13
  %.1 = phi ptr [ %2, %13 ], [ %2, %35 ], [ %.sink40, %.sink.split ]
  ret ptr %.1
}